; ModuleID = '38/1219.c'
source_filename = "38/1219.c"
target datalayout = "e-m:e-p270:32:32-p271:32:32-p272:64:64-i64:64-f80:128-n8:16:32:64-S128"
target triple = "x86_64-pc-linux-gnu"

@.str = private unnamed_addr constant [3 x i8] c"%d\00", align 1
@.str.1 = private unnamed_addr constant [4 x i8] c"%lf\00", align 1
@.str.2 = private unnamed_addr constant [6 x i8] c"%.5f\0A\00", align 1

; Function Attrs: noinline nounwind uwtable
define dso_local void @main() #0 {
  %1 = alloca i32, align 4
  %2 = alloca i32, align 4
  %3 = alloca i32, align 4
  %4 = alloca i32, align 4
  %5 = alloca double, align 8
  %6 = alloca double, align 8
  %7 = alloca double, align 8
  %8 = alloca [1000 x double*], align 16
  store i32 0, i32* %1, align 4
  br label %9

9:                                                ; preds = %19, %0
  %10 = load i32, i32* %1, align 4
  %11 = icmp sle i32 %10, 999
  br i1 %11, label %12, label %22

12:                                               ; preds = %9
  %13 = call noalias i8* @malloc(i64 8) #3
  %14 = bitcast i8* %13 to double*
  %15 = getelementptr inbounds [1000 x double*], [1000 x double*]* %8, i64 0, i64 0
  %16 = load i32, i32* %1, align 4
  %17 = sext i32 %16 to i64
  %18 = getelementptr inbounds double*, double** %15, i64 %17
  store double* %14, double** %18, align 8
  br label %19

19:                                               ; preds = %12
  %20 = load i32, i32* %1, align 4
  %21 = add nsw i32 %20, 1
  store i32 %21, i32* %1, align 4
  br label %9

22:                                               ; preds = %9
  %23 = call i32 (i8*, ...) @__isoc99_scanf(i8* getelementptr inbounds ([3 x i8], [3 x i8]* @.str, i64 0, i64 0), i32* %3)
  store i32 0, i32* %1, align 4
  br label %24

24:                                               ; preds = %97, %22
  %25 = load i32, i32* %1, align 4
  %26 = load i32, i32* %3, align 4
  %27 = sub nsw i32 %26, 1
  %28 = icmp sle i32 %25, %27
  br i1 %28, label %29, label %100

29:                                               ; preds = %24
  %30 = call i32 (i8*, ...) @__isoc99_scanf(i8* getelementptr inbounds ([3 x i8], [3 x i8]* @.str, i64 0, i64 0), i32* %4)
  store i32 0, i32* %2, align 4
  br label %31

31:                                               ; preds = %43, %29
  %32 = load i32, i32* %2, align 4
  %33 = load i32, i32* %4, align 4
  %34 = sub nsw i32 %33, 1
  %35 = icmp sle i32 %32, %34
  br i1 %35, label %36, label %46

36:                                               ; preds = %31
  %37 = getelementptr inbounds [1000 x double*], [1000 x double*]* %8, i64 0, i64 0
  %38 = load i32, i32* %2, align 4
  %39 = sext i32 %38 to i64
  %40 = getelementptr inbounds double*, double** %37, i64 %39
  %41 = load double*, double** %40, align 8
  %42 = call i32 (i8*, ...) @__isoc99_scanf(i8* getelementptr inbounds ([4 x i8], [4 x i8]* @.str.1, i64 0, i64 0), double* %41)
  br label %43

43:                                               ; preds = %36
  %44 = load i32, i32* %2, align 4
  %45 = add nsw i32 %44, 1
  store i32 %45, i32* %2, align 4
  br label %31

46:                                               ; preds = %31
  store double 0.000000e+00, double* %7, align 8
  store i32 0, i32* %2, align 4
  br label %47

47:                                               ; preds = %61, %46
  %48 = load i32, i32* %2, align 4
  %49 = load i32, i32* %4, align 4
  %50 = sub nsw i32 %49, 1
  %51 = icmp sle i32 %48, %50
  br i1 %51, label %52, label %64

52:                                               ; preds = %47
  %53 = load double, double* %7, align 8
  %54 = getelementptr inbounds [1000 x double*], [1000 x double*]* %8, i64 0, i64 0
  %55 = load i32, i32* %2, align 4
  %56 = sext i32 %55 to i64
  %57 = getelementptr inbounds double*, double** %54, i64 %56
  %58 = load double*, double** %57, align 8
  %59 = load double, double* %58, align 8
  %60 = fadd double %53, %59
  store double %60, double* %7, align 8
  br label %61

61:                                               ; preds = %52
  %62 = load i32, i32* %2, align 4
  %63 = add nsw i32 %62, 1
  store i32 %63, i32* %2, align 4
  br label %47

64:                                               ; preds = %47
  %65 = load double, double* %7, align 8
  %66 = load i32, i32* %4, align 4
  %67 = sitofp i32 %66 to double
  %68 = fdiv double %65, %67
  store double %68, double* %7, align 8
  store double 0.000000e+00, double* %6, align 8
  store i32 0, i32* %2, align 4
  br label %69

69:                                               ; preds = %86, %64
  %70 = load i32, i32* %2, align 4
  %71 = load i32, i32* %4, align 4
  %72 = sub nsw i32 %71, 1
  %73 = icmp sle i32 %70, %72
  br i1 %73, label %74, label %89

74:                                               ; preds = %69
  %75 = load double, double* %6, align 8
  %76 = getelementptr inbounds [1000 x double*], [1000 x double*]* %8, i64 0, i64 0
  %77 = load i32, i32* %2, align 4
  %78 = sext i32 %77 to i64
  %79 = getelementptr inbounds double*, double** %76, i64 %78
  %80 = load double*, double** %79, align 8
  %81 = load double, double* %80, align 8
  %82 = load double, double* %7, align 8
  %83 = fsub double %81, %82
  %84 = call double @pow(double %83, double 2.000000e+00) #3
  %85 = fadd double %75, %84
  store double %85, double* %6, align 8
  br label %86

86:                                               ; preds = %74
  %87 = load i32, i32* %2, align 4
  %88 = add nsw i32 %87, 1
  store i32 %88, i32* %2, align 4
  br label %69

89:                                               ; preds = %69
  %90 = load double, double* %6, align 8
  %91 = load i32, i32* %4, align 4
  %92 = sitofp i32 %91 to double
  %93 = fdiv double %90, %92
  %94 = call double @sqrt(double %93) #3
  store double %94, double* %5, align 8
  %95 = load double, double* %5, align 8
  %96 = call i32 (i8*, ...) @printf(i8* getelementptr inbounds ([6 x i8], [6 x i8]* @.str.2, i64 0, i64 0), double %95)
  br label %97

97:                                               ; preds = %89
  %98 = load i32, i32* %1, align 4
  %99 = add nsw i32 %98, 1
  store i32 %99, i32* %1, align 4
  br label %24

100:                                              ; preds = %24
  ret void
}

; Function Attrs: nounwind
declare dso_local noalias i8* @malloc(i64) #1

declare dso_local i32 @__isoc99_scanf(i8*, ...) #2

; Function Attrs: nounwind
declare dso_local double @pow(double, double) #1

; Function Attrs: nounwind
declare dso_local double @sqrt(double) #1

declare dso_local i32 @printf(i8*, ...) #2


!llvm.module.flags = !{!0}
!llvm.ident = !{!1}

!0 = !{i32 1, !"wchar_size", i32 4}
!1 = !{!"clang version 10.0.0-4ubuntu1 "}
